target datalayout = "e-m:e-p270:32:32-p271:32:32-p272:64:64-i64:64-i128:128-f80:128-n8:16:32:64-S128"
target triple = "x86_64-pc-linux-gnu"

%struct._YR_COMPILER = type { i32, i32, i32, i32, i32, [1 x %struct.__jmp_buf_tag], ptr, ptr, ptr, ptr, ptr, ptr, ptr, ptr, ptr, ptr, ptr, ptr, ptr, ptr, i32, i32, [4 x ptr], [4 x ptr], i32, i32, i32, [16 x ptr], i32, [16 x ptr], i32, [256 x i8], [1024 x i8], ptr, i16, [1024 x i8], ptr, %struct.rq, %struct.cs, ptr, i32 }
%struct.__jmp_buf_tag = type { [8 x i64], i32, %struct.__sigset_t }
%struct.__sigset_t = type { [16 x i64] }
%struct.rq = type { ptr, ptr }
%struct.cs = type { ptr, ptr }
%struct._yc_string = type { %struct.anon, i32, i32, %union.anon, %union.anon.0, %union.anon.1, i32 }
%struct.anon = type { ptr }
%union.anon = type { ptr }
%union.anon.0 = type { ptr }
%union.anon.1 = type { ptr }
%struct._SIZED_STRING = type { i32, i32, [1 x i8] }

@.str.2 = private unnamed_addr constant [2 x i8] c"$\00", align 1
@.str.3 = private unnamed_addr constant [44 x i8] c"yara_parser: no mem for struct _yc_string.\0A\00", align 1

; Function Attrs: nounwind uwtable
define i32 @_yr_parser_write_string(ptr noundef %0, i32 noundef %1, ptr noundef %2, ptr noundef %3, ptr noundef %4, ptr noundef %5, ptr noundef %6) #0 {
  %8 = alloca i32, align 4
  %9 = alloca ptr, align 8
  %10 = alloca i32, align 4
  %11 = alloca ptr, align 8
  %12 = alloca ptr, align 8
  %13 = alloca ptr, align 8
  %14 = alloca ptr, align 8
  %15 = alloca ptr, align 8
  %16 = alloca ptr, align 8
  %17 = alloca i32, align 4
  %18 = alloca i32, align 4
  store ptr %0, ptr %9, align 8, !tbaa !27
  store i32 %1, ptr %10, align 4, !tbaa !26
  store ptr %2, ptr %11, align 8, !tbaa !28
  store ptr %3, ptr %12, align 8, !tbaa !44
  store ptr %4, ptr %13, align 8, !tbaa !46
  store ptr %5, ptr %14, align 8, !tbaa !48
  store ptr %6, ptr %15, align 8, !tbaa !49
  call void @llvm.lifetime.start.p0(i64 8, ptr %16) #5
  call void @llvm.lifetime.start.p0(i64 4, ptr %17) #5
  %19 = load ptr, ptr %14, align 8, !tbaa !48
  store ptr null, ptr %19, align 8, !tbaa !31
  %20 = load ptr, ptr %11, align 8, !tbaa !28
  %21 = getelementptr inbounds nuw %struct._YR_COMPILER, ptr %20, i32 0, i32 8
  %22 = load ptr, ptr %21, align 8, !tbaa !35
  %23 = load ptr, ptr %14, align 8, !tbaa !48
  %24 = call i32 (ptr, i64, ptr, ...) @yr_arena_allocate_struct(ptr noundef %22, i64 noundef 48, ptr noundef %23, i64 noundef 16, i64 noundef 24, i64 noundef 32, i64 noundef -1)
  store i32 %24, ptr %17, align 4, !tbaa !26
  %25 = load i32, ptr %17, align 4, !tbaa !26
  %26 = icmp ne i32 %25, 0
  br i1 %26, label %27, label %29

27:                                               ; preds = %7
  %28 = load i32, ptr %17, align 4, !tbaa !26
  store i32 %28, ptr %8, align 4
  store i32 1, ptr %18, align 4
  br label %72

29:                                               ; preds = %7
  %30 = load ptr, ptr %11, align 8, !tbaa !28
  %31 = getelementptr inbounds nuw %struct._YR_COMPILER, ptr %30, i32 0, i32 6
  %32 = load ptr, ptr %31, align 8, !tbaa !51
  %33 = load ptr, ptr %9, align 8, !tbaa !27
  %34 = load ptr, ptr %14, align 8, !tbaa !48
  %35 = load ptr, ptr %34, align 8, !tbaa !31
  %36 = getelementptr inbounds nuw %struct._yc_string, ptr %35, i32 0, i32 3
  %37 = call i32 @yr_arena_write_string(ptr noundef %32, ptr noundef %33, ptr noundef %36)
  store i32 %37, ptr %17, align 4, !tbaa !26
  %38 = load i32, ptr %17, align 4, !tbaa !26
  %39 = icmp ne i32 %38, 0
  br i1 %39, label %40, label %42

40:                                               ; preds = %29
  %41 = load i32, ptr %17, align 4, !tbaa !26
  store i32 %41, ptr %8, align 4
  store i32 1, ptr %18, align 4
  br label %72

42:                                               ; preds = %29
  %43 = load ptr, ptr %12, align 8, !tbaa !44
  store ptr %43, ptr %16, align 8, !tbaa !44
  %44 = load i32, ptr %10, align 4, !tbaa !26
  %45 = load ptr, ptr %14, align 8, !tbaa !48
  %46 = load ptr, ptr %45, align 8, !tbaa !31
  %47 = getelementptr inbounds nuw %struct._yc_string, ptr %46, i32 0, i32 1
  store i32 %44, ptr %47, align 8, !tbaa !32
  %48 = load ptr, ptr %14, align 8, !tbaa !48
  %49 = load ptr, ptr %48, align 8, !tbaa !31
  %50 = getelementptr inbounds nuw %struct._yc_string, ptr %49, i32 0, i32 5
  store ptr null, ptr %50, align 8, !tbaa !7
  %51 = load ptr, ptr %16, align 8, !tbaa !44
  %52 = getelementptr inbounds nuw %struct._SIZED_STRING, ptr %51, i32 0, i32 0
  %53 = load i32, ptr %52, align 4, !tbaa !52
  %54 = load ptr, ptr %14, align 8, !tbaa !48
  %55 = load ptr, ptr %54, align 8, !tbaa !31
  %56 = getelementptr inbounds nuw %struct._yc_string, ptr %55, i32 0, i32 2
  store i32 %53, ptr %56, align 4, !tbaa !54
  %57 = load ptr, ptr %11, align 8, !tbaa !28
  %58 = getelementptr inbounds nuw %struct._YR_COMPILER, ptr %57, i32 0, i32 6
  %59 = load ptr, ptr %58, align 8, !tbaa !51
  %60 = load ptr, ptr %16, align 8, !tbaa !44
  %61 = getelementptr inbounds nuw %struct._SIZED_STRING, ptr %60, i32 0, i32 2
  %62 = getelementptr inbounds [1 x i8], ptr %61, i64 0, i64 0
  %63 = load ptr, ptr %16, align 8, !tbaa !44
  %64 = getelementptr inbounds nuw %struct._SIZED_STRING, ptr %63, i32 0, i32 0
  %65 = load i32, ptr %64, align 4, !tbaa !52
  %66 = sext i32 %65 to i64
  %67 = load ptr, ptr %14, align 8, !tbaa !48
  %68 = load ptr, ptr %67, align 8, !tbaa !31
  %69 = getelementptr inbounds nuw %struct._yc_string, ptr %68, i32 0, i32 4
  %70 = call i32 @yr_arena_write_data(ptr noundef %59, ptr noundef %62, i64 noundef %66, ptr noundef %69)
  store i32 %70, ptr %17, align 4, !tbaa !26
  %71 = load i32, ptr %17, align 4, !tbaa !26
  store i32 %71, ptr %8, align 4
  store i32 1, ptr %18, align 4
  br label %72

72:                                               ; preds = %42, %40, %27
  call void @llvm.lifetime.end.p0(i64 4, ptr %17) #5
  call void @llvm.lifetime.end.p0(i64 8, ptr %16) #5
  %73 = load i32, ptr %8, align 4
  ret i32 %73
}

; Function Attrs: nounwind uwtable
define ptr @yr_parser_reduce_string_declaration(ptr noundef %0, i32 noundef %1, ptr noundef %2, ptr noundef %3) #0 {
  %5 = alloca ptr, align 8
  %6 = alloca ptr, align 8
  %7 = alloca i32, align 4
  %8 = alloca ptr, align 8
  %9 = alloca ptr, align 8
  %10 = alloca i32, align 4
  %11 = alloca i32, align 4
  %12 = alloca ptr, align 8
  %13 = alloca ptr, align 8
  %14 = alloca i32, align 4
  store ptr %0, ptr %6, align 8, !tbaa !3
  store i32 %1, ptr %7, align 4, !tbaa !26
  store ptr %2, ptr %8, align 8, !tbaa !27
  store ptr %3, ptr %9, align 8, !tbaa !44
  call void @llvm.lifetime.start.p0(i64 4, ptr %10) #5
  call void @llvm.lifetime.start.p0(i64 4, ptr %11) #5
  store i32 0, ptr %11, align 4, !tbaa !26
  call void @llvm.lifetime.start.p0(i64 8, ptr %12) #5
  %15 = load ptr, ptr %6, align 8, !tbaa !3
  %16 = call ptr @yara_yyget_extra(ptr noundef %15)
  store ptr %16, ptr %12, align 8, !tbaa !28
  call void @llvm.lifetime.start.p0(i64 8, ptr %13) #5
  store ptr null, ptr %13, align 8, !tbaa !31
  %17 = load ptr, ptr %9, align 8, !tbaa !44
  %18 = getelementptr inbounds nuw %struct._SIZED_STRING, ptr %17, i32 0, i32 1
  %19 = load i32, ptr %18, align 4, !tbaa !55
  %20 = and i32 %19, 1
  %21 = icmp ne i32 %20, 0
  br i1 %21, label %22, label %25

22:                                               ; preds = %4
  %23 = load i32, ptr %7, align 4, !tbaa !26
  %24 = or i32 %23, 4
  store i32 %24, ptr %7, align 4, !tbaa !26
  br label %25

25:                                               ; preds = %22, %4
  %26 = load ptr, ptr %9, align 8, !tbaa !44
  %27 = getelementptr inbounds nuw %struct._SIZED_STRING, ptr %26, i32 0, i32 1
  %28 = load i32, ptr %27, align 4, !tbaa !55
  %29 = and i32 %28, 2
  %30 = icmp ne i32 %29, 0
  br i1 %30, label %31, label %34

31:                                               ; preds = %25
  %32 = load i32, ptr %11, align 4, !tbaa !26
  %33 = or i32 %32, 128
  store i32 %33, ptr %11, align 4, !tbaa !26
  br label %34

34:                                               ; preds = %31, %25
  %35 = load ptr, ptr %8, align 8, !tbaa !27
  %36 = call i32 @strcmp(ptr noundef %35, ptr noundef @.str.2) #6
  %37 = icmp eq i32 %36, 0
  br i1 %37, label %38, label %41

38:                                               ; preds = %34
  %39 = load i32, ptr %7, align 4, !tbaa !26
  %40 = or i32 %39, 256
  store i32 %40, ptr %7, align 4, !tbaa !26
  br label %41

41:                                               ; preds = %38, %34
  %42 = load i32, ptr %7, align 4, !tbaa !26
  %43 = and i32 %42, 16
  %44 = icmp ne i32 %43, 0
  br i1 %44, label %48, label %45

45:                                               ; preds = %41
  %46 = load i32, ptr %7, align 4, !tbaa !26
  %47 = or i32 %46, 8
  store i32 %47, ptr %7, align 4, !tbaa !26
  br label %48

48:                                               ; preds = %45, %41
  %49 = load i32, ptr %7, align 4, !tbaa !26
  %50 = and i32 %49, 4
  %51 = icmp ne i32 %50, 0
  br i1 %51, label %52, label %55

52:                                               ; preds = %48
  %53 = load i32, ptr %11, align 4, !tbaa !26
  %54 = or i32 %53, 32
  store i32 %54, ptr %11, align 4, !tbaa !26
  br label %55

55:                                               ; preds = %52, %48
  %56 = load i32, ptr %7, align 4, !tbaa !26
  %57 = or i32 %56, 512
  store i32 %57, ptr %7, align 4, !tbaa !26
  %58 = load ptr, ptr %8, align 8, !tbaa !27
  %59 = load i32, ptr %7, align 4, !tbaa !26
  %60 = load ptr, ptr %12, align 8, !tbaa !28
  %61 = load ptr, ptr %9, align 8, !tbaa !44
  %62 = call i32 @_yr_parser_write_string(ptr noundef %58, i32 noundef %59, ptr noundef %60, ptr noundef %61, ptr noundef null, ptr noundef %13, ptr noundef %10)
  %63 = load ptr, ptr %12, align 8, !tbaa !28
  %64 = getelementptr inbounds nuw %struct._YR_COMPILER, ptr %63, i32 0, i32 4
  store i32 %62, ptr %64, align 8, !tbaa !36
  %65 = load ptr, ptr %12, align 8, !tbaa !28
  %66 = getelementptr inbounds nuw %struct._YR_COMPILER, ptr %65, i32 0, i32 4
  %67 = load i32, ptr %66, align 8, !tbaa !36
  %68 = icmp ne i32 %67, 0
  br i1 %68, label %69, label %70

69:                                               ; preds = %55
  br label %94

70:                                               ; preds = %55
  %71 = load ptr, ptr %13, align 8, !tbaa !31
  %72 = icmp eq ptr %71, null
  br i1 %72, label %73, label %76

73:                                               ; preds = %70
  call void (ptr, ...) @cli_errmsg(ptr noundef @.str.3)
  %74 = load ptr, ptr %12, align 8, !tbaa !28
  %75 = getelementptr inbounds nuw %struct._YR_COMPILER, ptr %74, i32 0, i32 4
  store i32 20, ptr %75, align 8, !tbaa !36
  store ptr null, ptr %5, align 8
  store i32 1, ptr %14, align 4
  br label %102

76:                                               ; preds = %70
  br label %77

77:                                               ; preds = %76
  %78 = load ptr, ptr %13, align 8, !tbaa !31
  %79 = getelementptr inbounds nuw %struct._yc_string, ptr %78, i32 0, i32 0
  %80 = getelementptr inbounds nuw %struct.anon, ptr %79, i32 0, i32 0
  store ptr null, ptr %80, align 8, !tbaa !56
  %81 = load ptr, ptr %13, align 8, !tbaa !31
  %82 = load ptr, ptr %12, align 8, !tbaa !28
  %83 = getelementptr inbounds nuw %struct._YR_COMPILER, ptr %82, i32 0, i32 38
  %84 = getelementptr inbounds nuw %struct.cs, ptr %83, i32 0, i32 1
  %85 = load ptr, ptr %84, align 8, !tbaa !57
  store ptr %81, ptr %85, align 8, !tbaa !31
  %86 = load ptr, ptr %13, align 8, !tbaa !31
  %87 = getelementptr inbounds nuw %struct._yc_string, ptr %86, i32 0, i32 0
  %88 = getelementptr inbounds nuw %struct.anon, ptr %87, i32 0, i32 0
  %89 = load ptr, ptr %12, align 8, !tbaa !28
  %90 = getelementptr inbounds nuw %struct._YR_COMPILER, ptr %89, i32 0, i32 38
  %91 = getelementptr inbounds nuw %struct.cs, ptr %90, i32 0, i32 1
  store ptr %88, ptr %91, align 8, !tbaa !57
  br label %92

92:                                               ; preds = %77
  br label %93

93:                                               ; preds = %92
  br label %94

94:                                               ; preds = %93, %69
  %95 = load ptr, ptr %12, align 8, !tbaa !28
  %96 = getelementptr inbounds nuw %struct._YR_COMPILER, ptr %95, i32 0, i32 4
  %97 = load i32, ptr %96, align 8, !tbaa !36
  %98 = icmp ne i32 %97, 0
  br i1 %98, label %99, label %100

99:                                               ; preds = %94
  store ptr null, ptr %5, align 8
  store i32 1, ptr %14, align 4
  br label %102

100:                                              ; preds = %94
  %101 = load ptr, ptr %13, align 8, !tbaa !31
  store ptr %101, ptr %5, align 8
  store i32 1, ptr %14, align 4
  br label %102

102:                                              ; preds = %100, %99, %73
  call void @llvm.lifetime.end.p0(i64 8, ptr %13) #5
  call void @llvm.lifetime.end.p0(i64 8, ptr %12) #5
  call void @llvm.lifetime.end.p0(i64 4, ptr %11) #5
  call void @llvm.lifetime.end.p0(i64 4, ptr %10) #5
  %103 = load ptr, ptr %5, align 8
  ret ptr %103
}