; Function Attrs: nounwind uwtable
define ptr @yr_parser_reduce_string_declaration(ptr noundef %0, i32 noundef %1, ptr noundef %2, ptr noundef %3) local_unnamed_addr #0 {
sub_0:
  %4 = alloca ptr, align 8
  %5 = tail call ptr @yara_yyget_extra(ptr noundef %0) #6
  call void @llvm.lifetime.start.p0(i64 8, ptr nonnull %4) #6
  %6 = getelementptr inbounds nuw i8, ptr %3, i64 4
  %7 = load i32, ptr %6, align 4, !tbaa !41
  %8 = shl i32 %7, 2
  %9 = and i32 %8, 4
  %spec.select = or i32 %9, %1
  %10 = load i8, ptr %2, align 1
  %.not = icmp eq i8 %10, 36
  br i1 %.not, label %.tail, label %.tail.thread

.tail:                                            ; preds = %sub_0
  %11 = getelementptr inbounds nuw i8, ptr %2, i64 1
  %12 = load i8, ptr %11, align 1
  %.fr = freeze i8 %12
  %13 = icmp eq i8 %.fr, 0
  %14 = or i32 %spec.select, 256
  %spec.select36 = select i1 %13, i32 %14, i32 %spec.select
  br label %.tail.thread

.tail.thread:                                     ; preds = %.tail, %sub_0
  %15 = phi i32 [ %spec.select, %sub_0 ], [ %spec.select36, %.tail ]
  %16 = lshr i32 %15, 1
  %17 = and i32 %16, 8
  %18 = xor i32 %17, 8
  %.2 = or i32 %15, %18
  %19 = or i32 %.2, 512
  store ptr null, ptr %4, align 8, !tbaa !36
  %20 = getelementptr inbounds nuw i8, ptr %5, i64 240
  %21 = load ptr, ptr %20, align 8, !tbaa !28
  %22 = call i32 (ptr, i64, ptr, ...) @yr_arena_allocate_struct(ptr noundef %21, i64 noundef 48, ptr noundef nonnull %4, i64 noundef 16, i64 noundef 24, i64 noundef 32, i64 noundef -1) #6
  %.not.i = icmp eq i32 %22, 0
  br i1 %.not.i, label %23, label %_yr_parser_write_string.exit.thread

23:                                               ; preds = %.tail.thread
  %24 = getelementptr inbounds nuw i8, ptr %5, i64 224
  %25 = load ptr, ptr %24, align 8, !tbaa !37
  %26 = load ptr, ptr %4, align 8, !tbaa !36
  %27 = getelementptr inbounds nuw i8, ptr %26, i64 16
  %28 = call i32 @yr_arena_write_string(ptr noundef %25, ptr noundef nonnull %2, ptr noundef nonnull %27) #6
  %.not23.i = icmp eq i32 %28, 0
  br i1 %.not23.i, label %_yr_parser_write_string.exit, label %_yr_parser_write_string.exit.thread

_yr_parser_write_string.exit.thread:              ; preds = %.tail.thread, %23
  %.0.i.ph = phi i32 [ %28, %23 ], [ %22, %.tail.thread ]
  %29 = getelementptr inbounds nuw i8, ptr %5, i64 16
  store i32 %.0.i.ph, ptr %29, align 8, !tbaa !29
  br label %.thread

_yr_parser_write_string.exit:                     ; preds = %23
  %30 = load ptr, ptr %4, align 8, !tbaa !36
  %31 = getelementptr inbounds nuw i8, ptr %30, i64 8
  store i32 %19, ptr %31, align 8, !tbaa !25
  %32 = getelementptr inbounds nuw i8, ptr %30, i64 32
  store ptr null, ptr %32, align 8, !tbaa !3
  %33 = load i32, ptr %3, align 4, !tbaa !38
  %34 = getelementptr inbounds nuw i8, ptr %30, i64 12
  store i32 %33, ptr %34, align 4, !tbaa !40
  %35 = load ptr, ptr %24, align 8, !tbaa !37
  %36 = getelementptr inbounds nuw i8, ptr %3, i64 8
  %37 = sext i32 %33 to i64
  %38 = getelementptr inbounds nuw i8, ptr %30, i64 24
  %39 = call i32 @yr_arena_write_data(ptr noundef %35, ptr noundef nonnull %36, i64 noundef %37, ptr noundef nonnull %38) #6
  %40 = getelementptr inbounds nuw i8, ptr %5, i64 16
  store i32 %39, ptr %40, align 8, !tbaa !29
  %.not28 = icmp eq i32 %39, 0
  br i1 %.not28, label %41, label %.thread

41:                                               ; preds = %_yr_parser_write_string.exit
  %42 = load ptr, ptr %4, align 8, !tbaa !36
  %43 = icmp eq ptr %42, null
  br i1 %43, label %44, label %45

44:                                               ; preds = %41
  call void (ptr, ...) @cli_errmsg(ptr noundef nonnull @.str.3) #6
  store i32 20, ptr %40, align 8, !tbaa !29
  br label %.thread

45:                                               ; preds = %41
  store ptr null, ptr %42, align 8, !tbaa !42
  %46 = load ptr, ptr %4, align 8, !tbaa !36
  %47 = getelementptr inbounds nuw i8, ptr %5, i64 3048
  %48 = load ptr, ptr %47, align 8, !tbaa !43
  store ptr %46, ptr %48, align 8, !tbaa !36
  store ptr %46, ptr %47, align 8, !tbaa !43
  br label %.thread

.thread:                                          ; preds = %_yr_parser_write_string.exit, %_yr_parser_write_string.exit.thread, %45, %44
  %.0 = phi ptr [ null, %44 ], [ %46, %45 ], [ null, %_yr_parser_write_string.exit.thread ], [ null, %_yr_parser_write_string.exit ]
  call void @llvm.lifetime.end.p0(i64 8, ptr nonnull %4) #6
  ret ptr %.0
}